Certificate:
    Data:
        Version: 3 (0x2)
        Serial Number: 1 (0x1)
    Signature Algorithm: sha256WithRSAEncryption
        Issuer: CN=QUIC Server Root CA
        Validity
            Not Before: Sep 20 03:24:01 2015 GMT
            Not After : Sep 23 03:24:01 2015 GMT
        Subject: C=US, ST=California, L=Mountain View, O=QUIC Server, CN=127.0.0.1
        Subject Public Key Info:
            Public Key Algorithm: rsaEncryption
                Public-Key: (2048 bit)
                Modulus:
                    00:96:4b:dd:22:87:30:80:a3:05:0c:6b:b2:09:c5:
                    3f:7e:86:11:10:bf:9c:55:76:5c:0c:0a:44:61:65:
                    bf:71:2a:c5:fc:82:df:3a:ee:ef:1a:9e:ab:20:9b:
                    42:2b:9e:8e:da:51:a2:dd:18:a1:e1:e9:b9:62:1a:
                    39:39:4c:4d:59:e9:8d:2f:fe:35:64:05:3c:26:b6:
                    fe:6c:92:db:d3:a9:3e:69:66:98:8b:58:d8:31:97:
                    3f:91:97:4d:39:f9:53:74:83:bb:27:e0:87:87:c5:
                    c5:da:35:7d:71:1a:f2:39:19:4a:78:11:a9:d7:58:
                    91:0b:14:7b:f5:8c:77:53:9d:74:af:34:79:39:f1:
                    f0:2b:98:ee:ad:84:de:79:19:82:25:0d:09:ca:45:
                    0c:54:a5:68:6a:83:ad:e2:37:fb:cc:44:d8:70:73:
                    de:6d:72:c9:c8:44:23:d0:14:1e:6a:ff:94:85:d9:
                    88:40:8b:ea:c5:39:c8:03:8d:2d:40:23:68:7e:f3:
                    3f:e0:bf:cd:1e:ee:45:c2:31:12:6e:f4:00:c8:4b:
                    d1:88:75:fa:eb:e5:97:24:80:df:1b:25:20:85:10:
                    84:d9:17:50:07:84:3b:2a:46:0f:c7:d7:f0:b3:e2:
                    be:97:75:89:e1:c9:a9:c6:de:b6:94:b7:e1:0d:50:
                    49:8f
                Exponent: 65537 (0x10001)
        X509v3 extensions:
            X509v3 Basic Constraints: critical
                CA:FALSE
            X509v3 Subject Key Identifier: 
                20:F6:A3:D7:4B:B6:55:6A:29:08:18:9F:69:C0:0B:38:DA:0C:DC:C9
            X509v3 Authority Key Identifier: 
                keyid:82:AD:F5:F0:8B:0B:B3:A8:1E:1D:89:4D:8E:65:7E:EC:F4:44:F0:E1

            X509v3 Extended Key Usage: 
                TLS Web Server Authentication, TLS Web Client Authentication
            X509v3 Subject Alternative Name: 
                DNS:www.example.org, DNS:mail.example.org, DNS:mail.example.com
    Signature Algorithm: sha256WithRSAEncryption
         80:92:c2:f6:1f:fd:c6:cf:ae:d4:16:c4:e6:e4:51:5f:c4:f1:
         be:20:0c:2e:d7:8e:6a:aa:57:cb:75:7c:05:17:72:f6:07:96:
         f5:1a:63:b4:00:69:a9:d6:4f:bb:13:6d:33:68:40:84:4e:17:
         b3:44:ae:0f:20:c8:af:2b:4d:fb:68:5b:ab:38:79:d2:9e:1f:
         81:3f:b2:10:81:8f:5f:e6:25:27:25:b9:88:d4:55:f2:10:e7:
         d8:4c:8c:f2:34:ba:cd:68:72:4e:c3:5e:46:b5:16:45:03:47:
         0a:95:c7:72:97:9a:b9:52:6a:ac:e0:78:2d:d1:87:c8:3a:da:
         a0:b1:2c:41:6f:09:66:3a:16:99:33:3c:33:86:6f:5d:e0:3e:
         18:fe:f6:12:c0:7a:81:2b:d6:6a:2c:4a:46:7f:56:70:82:e8:
         19:71:8e:4a:51:c5:52:34:98:fe:bf:2e:40:e1:c1:47:19:92:
         ed:3f:e3:e9:55:e3:72:a1:4f:5b:1e:f8:3c:6f:67:a2:a4:6c:
         c8:2b:37:6a:c8:58:2b:d9:2f:ee:f8:a4:63:04:65:22:de:14:
         03:08:19:8f:38:36:e2:6e:d4:28:ca:c7:9e:8e:96:02:3d:6e:
         e2:01:b7:29:68:33:b5:20:9a:3f:cf:c1:44:05:37:87:45:79:
         7b:71:73:cf
-----BEGIN CERTIFICATE-----
MIIDrjCCApagAwIBAgIBATANBgkqhkiG9w0BAQsFADAeMRwwGgYDVQQDDBNRVUlD
IFNlcnZlciBSb290IENBMB4XDTE1MDkyMDAzMjQwMVoXDTE1MDkyMzAzMjQwMVow
ZDELMAkGA1UEBhMCVVMxEzARBgNVBAgMCkNhbGlmb3JuaWExFjAUBgNVBAcMDU1v
dW50YWluIFZpZXcxFDASBgNVBAoMC1FVSUMgU2VydmVyMRIwEAYDVQQDDAkxMjcu
MC4wLjEwggEiMA0GCSqGSIb3DQEBAQUAA4IBDwAwggEKAoIBAQCWS90ihzCAowUM
a7IJxT9+hhEQv5xVdlwMCkRhZb9xKsX8gt867u8anqsgm0Irno7aUaLdGKHh6bli
Gjk5TE1Z6Y0v/jVkBTwmtv5sktvTqT5pZpiLWNgxlz+Rl005+VN0g7sn4IeHxcXa
NX1xGvI5GUp4EanXWJELFHv1jHdTnXSvNHk58fArmO6thN55GYIlDQnKRQxUpWhq
g63iN/vMRNhwc95tcsnIRCPQFB5q/5SF2YhAi+rFOcgDjS1AI2h+8z/gv80e7kXC
MRJu9ADIS9GIdfrr5ZckgN8bJSCFEITZF1AHhDsqRg/H1/Cz4r6XdYnhyanG3raU
t+ENUEmPAgMBAAGjgbAwga0wDAYDVR0TAQH/BAIwADAdBgNVHQ4EFgQUIPaj10u2
VWopCBifacALONoM3MkwHwYDVR0jBBgwFoAUgq318IsLs6geHYlNjmV+7PRE8OEw
HQYDVR0lBBYwFAYIKwYBBQUHAwEGCCsGAQUFBwMCMD4GA1UdEQQ3MDWCD3d3dy5l
eGFtcGxlLm9yZ4IQbWFpbC5leGFtcGxlLm9yZ4IQbWFpbC5leGFtcGxlLmNvbTAN
BgkqhkiG9w0BAQsFAAOCAQEAgJLC9h/9xs+u1BbE5uRRX8TxviAMLteOaqpXy3V8
BRdy9geW9RpjtABpqdZPuxNtM2hAhE4Xs0SuDyDIrytN+2hbqzh50p4fgT+yEIGP
X+YlJyW5iNRV8hDn2EyM8jS6zWhyTsNeRrUWRQNHCpXHcpeauVJqrOB4LdGHyDra
oLEsQW8JZjoWmTM8M4ZvXeA+GP72EsB6gSvWaixKRn9WcILoGXGOSlHFUjSY/r8u
QOHBRxmS7T/j6VXjcqFPWx74PG9noqRsyCs3ashYK9kv7vikYwRlIt4UAwgZjzg2
4m7UKMrHno6WAj1u4gG3KWgztSCaP8/BRAU3h0V5e3Fzzw==
-----END CERTIFICATE-----
