Certificate:
    Data:
        Version: 3 (0x2)
        Serial Number: 1 (0x1)
    Signature Algorithm: sha256WithRSAEncryption
        Issuer: CN=QUIC Server Root CA
        Validity
            Not Before: Oct 17 07:37:39 2015 GMT
            Not After : Aug 12 07:37:39 2016 GMT
        Subject: C=US, ST=California, L=Mountain View, O=QUIC Server, CN=127.0.0.1
        Subject Public Key Info:
            Public Key Algorithm: rsaEncryption
                Public-Key: (2048 bit)
                Modulus:
                    00:a8:3d:15:62:11:66:9d:ac:a4:cb:3b:df:33:45:
                    05:27:03:af:f1:dc:42:51:33:32:ab:d4:c8:d7:c0:
                    f0:b8:02:fb:3c:84:ed:51:7b:92:22:a6:a2:0e:66:
                    9a:b8:ab:cf:be:26:61:8b:dc:75:02:23:b5:1f:9d:
                    90:74:69:04:5b:8d:5d:37:cd:f5:f5:30:dc:07:ab:
                    cf:03:ed:d0:0f:9a:ac:79:a4:35:cb:da:13:f7:c3:
                    dd:61:e9:90:ce:4e:60:f1:b2:25:72:c5:a9:1e:92:
                    44:2e:fd:c9:0b:a2:4a:5c:ca:45:0e:68:a6:e2:b6:
                    99:e2:74:a2:34:ee:dd:c5:5d:3e:45:4e:6d:63:1e:
                    86:09:1d:10:06:1b:b1:00:e5:51:b8:98:65:ff:3c:
                    68:7d:6e:56:0c:5f:b3:ed:90:84:62:70:cd:fb:a1:
                    95:99:11:58:14:75:44:ed:d5:d2:bd:85:d2:31:79:
                    d9:e8:ba:e0:c3:01:40:5c:d1:62:f5:07:23:3a:d3:
                    c7:a6:eb:af:ab:d6:e7:e7:e2:28:95:60:9c:52:e6:
                    66:0a:a9:77:85:01:98:59:91:0a:e5:c5:4f:da:9f:
                    57:4c:ae:f4:be:19:4d:26:98:0d:11:22:01:3c:86:
                    c7:e2:fb:22:46:79:d6:c4:94:08:5e:d9:3e:ba:20:
                    ae:e5
                Exponent: 65537 (0x10001)
        X509v3 extensions:
            X509v3 Basic Constraints: critical
                CA:FALSE
            X509v3 Subject Key Identifier: 
                77:8B:7C:F7:4D:31:5E:03:27:D5:35:31:35:3C:51:3E:72:97:63:0B
            X509v3 Authority Key Identifier: 
                keyid:91:0E:5B:95:BF:37:BB:39:62:BB:72:49:6B:2D:6F:2F:57:56:D4:F4

            X509v3 Extended Key Usage: 
                TLS Web Server Authentication, TLS Web Client Authentication
            X509v3 Subject Alternative Name: 
                DNS:www.example.org, DNS:mail.example.org, DNS:mail.example.com, IP Address:127.0.0.1
    Signature Algorithm: sha256WithRSAEncryption
         58:a0:3f:47:9b:9b:5e:f2:c6:14:33:e7:af:91:f9:15:c7:97:
         38:79:30:ff:0e:75:42:45:67:00:0c:eb:a4:e9:d6:6e:ed:bb:
         5c:5a:1f:9b:26:44:11:70:9a:6e:cf:54:5b:48:4d:41:da:cb:
         c4:34:8d:7e:7f:bd:10:01:a2:66:a5:b0:9d:da:9b:78:c4:ab:
         97:c3:41:02:0a:f2:cb:b2:8a:f4:7a:6d:32:ae:1c:e7:2a:f3:
         85:04:12:65:de:a5:39:a7:d4:b8:d0:bf:97:c4:59:41:b6:51:
         f3:74:21:17:14:f5:51:02:87:29:f4:25:1b:30:24:47:d1:14:
         b6:37:4f:96:12:90:4a:b9:a0:3e:99:48:0b:da:c0:a7:7e:01:
         a3:34:af:0e:2f:6c:60:11:c7:f2:e7:06:13:6b:c5:ac:fd:18:
         ac:01:87:39:7f:3f:99:e8:f3:b5:20:61:a2:48:13:98:03:f6:
         cf:5e:f2:c0:dd:bb:fa:d5:72:d4:5f:6a:92:0e:46:04:12:1a:
         ea:74:8b:9e:40:99:37:be:32:ad:73:50:2d:35:e7:8e:a2:70:
         ea:10:fa:e8:c5:d2:7b:8b:70:06:3f:e9:09:12:4a:14:e7:da:
         0d:56:15:c1:07:39:7b:41:62:50:ee:c2:48:79:af:14:7a:86:
         c9:c7:cb:7e
-----BEGIN CERTIFICATE-----
MIIDtDCCApygAwIBAgIBATANBgkqhkiG9w0BAQsFADAeMRwwGgYDVQQDDBNRVUlD
IFNlcnZlciBSb290IENBMB4XDTE1MTAxNzA3MzczOVoXDTE2MDgxMjA3MzczOVow
ZDELMAkGA1UEBhMCVVMxEzARBgNVBAgMCkNhbGlmb3JuaWExFjAUBgNVBAcMDU1v
dW50YWluIFZpZXcxFDASBgNVBAoMC1FVSUMgU2VydmVyMRIwEAYDVQQDDAkxMjcu
MC4wLjEwggEiMA0GCSqGSIb3DQEBAQUAA4IBDwAwggEKAoIBAQCoPRViEWadrKTL
O98zRQUnA6/x3EJRMzKr1MjXwPC4Avs8hO1Re5IipqIOZpq4q8++JmGL3HUCI7Uf
nZB0aQRbjV03zfX1MNwHq88D7dAPmqx5pDXL2hP3w91h6ZDOTmDxsiVyxakekkQu
/ckLokpcykUOaKbitpnidKI07t3FXT5FTm1jHoYJHRAGG7EA5VG4mGX/PGh9blYM
X7PtkIRicM37oZWZEVgUdUTt1dK9hdIxednouuDDAUBc0WL1ByM608em66+r1ufn
4iiVYJxS5mYKqXeFAZhZkQrlxU/an1dMrvS+GU0mmA0RIgE8hsfi+yJGedbElAhe
2T66IK7lAgMBAAGjgbYwgbMwDAYDVR0TAQH/BAIwADAdBgNVHQ4EFgQUd4t8900x
XgMn1TUxNTxRPnKXYwswHwYDVR0jBBgwFoAUkQ5blb83uzliu3JJay1vL1dW1PQw
HQYDVR0lBBYwFAYIKwYBBQUHAwEGCCsGAQUFBwMCMEQGA1UdEQQ9MDuCD3d3dy5l
eGFtcGxlLm9yZ4IQbWFpbC5leGFtcGxlLm9yZ4IQbWFpbC5leGFtcGxlLmNvbYcE
fwAAATANBgkqhkiG9w0BAQsFAAOCAQEAWKA/R5ubXvLGFDPnr5H5FceXOHkw/w51
QkVnAAzrpOnWbu27XFofmyZEEXCabs9UW0hNQdrLxDSNfn+9EAGiZqWwndqbeMSr
l8NBAgryy7KK9HptMq4c5yrzhQQSZd6lOafUuNC/l8RZQbZR83QhFxT1UQKHKfQl
GzAkR9EUtjdPlhKQSrmgPplIC9rAp34BozSvDi9sYBHH8ucGE2vFrP0YrAGHOX8/
mejztSBhokgTmAP2z17ywN27+tVy1F9qkg5GBBIa6nSLnkCZN74yrXNQLTXnjqJw
6hD66MXSe4twBj/pCRJKFOfaDVYVwQc5e0FiUO7CSHmvFHqGycfLfg==
-----END CERTIFICATE-----
