Certificate:
    Data:
        Version: 3 (0x2)
        Serial Number: 11625957105698086395 (0xa157b26403101dfb)
    Signature Algorithm: sha1WithRSAEncryption
        Issuer: CN=QUIC Server Root CA
        Validity
            Not Before: Sep 20 03:24:01 2015 GMT
            Not After : Sep 23 03:24:01 2015 GMT
        Subject: CN=QUIC Server Root CA
        Subject Public Key Info:
            Public Key Algorithm: rsaEncryption
                Public-Key: (2048 bit)
                Modulus:
                    00:b5:d7:0c:01:1b:0b:e8:de:8f:c8:d0:5c:44:1c:
                    95:85:da:bf:cf:be:3b:65:09:47:db:3e:b7:37:06:
                    80:ac:3f:bb:33:44:fd:95:13:de:1e:6c:ac:3f:81:
                    8d:20:0a:e0:91:e6:92:36:98:77:28:f7:03:91:9d:
                    ed:dd:3a:2b:f1:bb:8d:7d:a7:84:da:fe:98:86:92:
                    8e:d9:80:3e:e5:c4:35:ca:27:14:7a:70:8d:04:87:
                    22:ed:86:16:89:e3:32:03:a2:3f:3d:a1:e9:88:bd:
                    2c:d9:0c:6c:54:5d:b9:81:6e:1c:12:d0:86:ab:3d:
                    a7:5c:38:09:ef:c0:d5:ec:10:e5:ec:c2:4d:55:dc:
                    b7:d2:18:51:29:0f:96:06:c9:9d:34:55:fe:79:20:
                    6c:68:63:bf:bc:44:ef:e8:8c:0b:19:3f:c5:c7:f6:
                    84:f9:2e:45:d7:ef:8b:ec:27:f0:d2:0e:8a:18:3c:
                    e1:9a:df:0b:f7:0c:e5:52:ee:9a:49:cd:2f:b6:56:
                    c7:5e:ec:fe:73:d5:97:70:60:a5:8b:cf:97:c0:40:
                    9f:a5:b0:fb:36:a4:91:e3:a0:c2:01:80:18:a2:51:
                    26:51:ec:6e:ed:6c:81:7e:3f:09:cc:d9:fe:7c:c7:
                    58:e8:21:13:ca:d9:17:61:8f:6e:5d:e9:b2:3d:bf:
                    55:49
                Exponent: 65537 (0x10001)
        X509v3 extensions:
            X509v3 Basic Constraints: critical
                CA:TRUE
            X509v3 Subject Key Identifier: 
                82:AD:F5:F0:8B:0B:B3:A8:1E:1D:89:4D:8E:65:7E:EC:F4:44:F0:E1
            X509v3 Key Usage: critical
                Certificate Sign, CRL Sign
            X509v3 Name Constraints: 
                Permitted:
                  DNS:www.example.com

    Signature Algorithm: sha1WithRSAEncryption
         4f:1b:1c:46:20:61:8b:c6:87:90:b7:30:5d:3a:ac:ef:11:ae:
         b0:86:39:67:3e:e3:c5:b9:8d:d0:ed:2d:14:12:e0:a9:e3:2b:
         4e:f2:15:d8:0f:60:fa:24:75:00:4e:fe:96:55:42:6f:0d:48:
         3f:a0:e6:e8:1f:5b:de:00:48:4a:56:31:f6:4a:88:1a:f0:21:
         df:0f:9e:42:b8:29:7b:ae:d1:fb:fb:72:7d:30:91:68:e8:11:
         2d:fa:2f:93:ab:6b:51:eb:99:90:9a:10:a2:59:b9:bc:48:45:
         bf:a6:01:40:c5:b6:5f:18:63:94:75:8f:19:03:cf:05:fc:31:
         b2:4a:41:f0:76:39:fb:e6:ac:aa:a7:6d:20:a4:7c:84:bb:c8:
         2a:78:ca:71:ab:af:b2:c0:6a:f2:70:52:81:8d:cf:ca:3e:b6:
         89:d5:9d:48:9f:73:07:b7:c7:2f:92:68:43:cc:88:9f:6a:47:
         fa:df:08:aa:0a:bc:50:0b:b6:b6:00:9a:1c:dc:f9:0d:64:bd:
         22:39:38:e3:8d:4e:12:c9:af:43:30:72:78:db:2a:5e:cb:d9:
         d7:f9:d9:e2:d5:aa:0a:21:5a:ca:ca:ca:c5:57:3a:b5:c4:d8:
         45:3e:33:c4:9c:f8:2e:a6:68:24:1b:95:e0:5d:4f:86:97:4e:
         9f:d5:97:fd
-----BEGIN CERTIFICATE-----
MIIDITCCAgmgAwIBAgIJAKFXsmQDEB37MA0GCSqGSIb3DQEBBQUAMB4xHDAaBgNV
BAMME1FVSUMgU2VydmVyIFJvb3QgQ0EwHhcNMTUwOTIwMDMyNDAxWhcNMTUwOTIz
MDMyNDAxWjAeMRwwGgYDVQQDDBNRVUlDIFNlcnZlciBSb290IENBMIIBIjANBgkq
hkiG9w0BAQEFAAOCAQ8AMIIBCgKCAQEAtdcMARsL6N6PyNBcRByVhdq/z747ZQlH
2z63NwaArD+7M0T9lRPeHmysP4GNIArgkeaSNph3KPcDkZ3t3Tor8buNfaeE2v6Y
hpKO2YA+5cQ1yicUenCNBIci7YYWieMyA6I/PaHpiL0s2QxsVF25gW4cEtCGqz2n
XDgJ78DV7BDl7MJNVdy30hhRKQ+WBsmdNFX+eSBsaGO/vETv6IwLGT/Fx/aE+S5F
1++L7Cfw0g6KGDzhmt8L9wzlUu6aSc0vtlbHXuz+c9WXcGCli8+XwECfpbD7NqSR
46DCAYAYolEmUexu7WyBfj8JzNn+fMdY6CETytkXYY9uXemyPb9VSQIDAQABo2Iw
YDAPBgNVHRMBAf8EBTADAQH/MB0GA1UdDgQWBBSCrfXwiwuzqB4diU2OZX7s9ETw
4TAOBgNVHQ8BAf8EBAMCAQYwHgYDVR0eBBcwFaATMBGCD3d3dy5leGFtcGxlLmNv
bTANBgkqhkiG9w0BAQUFAAOCAQEATxscRiBhi8aHkLcwXTqs7xGusIY5Zz7jxbmN
0O0tFBLgqeMrTvIV2A9g+iR1AE7+llVCbw1IP6Dm6B9b3gBISlYx9kqIGvAh3w+e
Qrgpe67R+/tyfTCRaOgRLfovk6trUeuZkJoQolm5vEhFv6YBQMW2XxhjlHWPGQPP
BfwxskpB8HY5++asqqdtIKR8hLvIKnjKcauvssBq8nBSgY3Pyj62idWdSJ9zB7fH
L5JoQ8yIn2pH+t8Iqgq8UAu2tgCaHNz5DWS9Ijk4441OEsmvQzByeNsqXsvZ1/nZ
4tWqCiFaysrKxVc6tcTYRT4zxJz4LqZoJBuV4F1PhpdOn9WX/Q==
-----END CERTIFICATE-----
