Certificate:
    Data:
        Version: 3 (0x2)
        Serial Number: 9491064355008284512 (0x83b708bebca40760)
    Signature Algorithm: sha256WithRSAEncryption
        Issuer: CN=QUIC Server Root CA
        Validity
            Not Before: Oct 17 07:37:39 2015 GMT
            Not After : Aug 12 07:37:39 2016 GMT
        Subject: CN=QUIC Server Root CA
        Subject Public Key Info:
            Public Key Algorithm: rsaEncryption
                Public-Key: (2048 bit)
                Modulus:
                    00:d6:6c:c8:73:6f:10:29:d0:6d:e2:2a:da:e8:91:
                    93:a3:78:61:d5:2e:9a:a3:bb:22:e2:83:ce:d9:a8:
                    97:95:20:69:56:1f:42:d6:42:e8:39:81:c1:ef:f3:
                    9c:c2:2b:1f:b3:ce:8e:d7:0f:a6:b8:45:1c:99:28:
                    b4:7e:07:e3:cc:ce:56:81:89:4f:d0:e6:de:05:ca:
                    f2:a5:e4:2d:1e:57:bc:92:fe:bf:6d:99:56:f7:1e:
                    3e:88:04:ca:80:6c:6d:ab:33:e3:9a:12:d5:1d:12:
                    6e:4c:e6:52:4c:a8:e6:30:f7:e4:cd:2f:b8:63:54:
                    a7:33:5f:10:ae:12:01:12:55:cb:8a:36:9c:46:cc:
                    0c:e4:8a:b3:c9:1d:16:99:09:f5:67:e2:8e:8e:14:
                    28:67:6b:2d:60:1d:a3:a4:de:41:38:5c:86:ff:0f:
                    e4:4b:a3:cb:06:7b:13:1d:9b:21:a4:8b:75:da:1a:
                    1a:ef:ed:a2:81:aa:85:5e:47:ce:e6:51:d9:8c:2b:
                    66:d3:56:6a:3c:0d:d1:f5:db:42:28:b2:74:71:8d:
                    20:42:f2:e4:45:01:80:f0:ae:f8:4c:28:84:76:5e:
                    3c:81:97:ab:58:7f:3e:29:7d:6c:ad:40:0f:5a:da:
                    df:21:83:e0:44:35:65:6d:74:c1:d6:02:c6:d6:5d:
                    38:ef
                Exponent: 65537 (0x10001)
        X509v3 extensions:
            X509v3 Basic Constraints: critical
                CA:TRUE
            X509v3 Subject Key Identifier: 
                91:0E:5B:95:BF:37:BB:39:62:BB:72:49:6B:2D:6F:2F:57:56:D4:F4
            X509v3 Key Usage: critical
                Certificate Sign, CRL Sign
    Signature Algorithm: sha256WithRSAEncryption
         5b:c0:2c:36:54:11:57:07:69:43:a5:a7:75:30:fc:04:0a:87:
         54:76:34:e5:45:ca:ac:b5:9e:d6:07:9e:b8:f9:31:55:12:e2:
         7f:f1:74:29:fa:e6:6b:df:19:c1:a2:ed:58:91:ea:d7:1d:12:
         aa:fb:6b:66:b4:ab:f1:91:ec:07:00:6c:89:97:8d:b8:69:27:
         4b:0d:57:52:35:ab:40:c0:a8:0c:ec:6d:b2:66:c9:67:a1:1f:
         e4:df:49:e5:65:62:5f:b5:65:77:6f:51:90:46:a9:78:0c:69:
         d8:56:04:58:c7:3c:27:62:72:c0:dc:b9:a8:ef:96:7e:cc:75:
         47:e4:67:35:d7:c5:3f:d3:b7:85:78:6b:27:87:fc:9a:9b:51:
         e5:08:98:48:47:b3:ba:49:6f:b9:e0:3f:79:2f:b4:30:dc:23:
         31:f0:42:35:15:53:23:75:05:ff:68:42:2b:f2:e2:2e:7b:93:
         1b:b2:70:77:95:b5:96:ad:d4:32:2e:fd:94:32:f3:b9:da:c8:
         00:87:e4:85:5a:83:4e:23:42:53:f5:d6:3e:dc:0b:29:c2:74:
         19:cf:d1:4f:06:d6:0f:b6:bd:2e:a2:2e:f6:53:2b:bb:ee:a0:
         be:55:c9:93:7f:99:88:e4:fc:f5:c5:c2:d5:88:7b:06:43:4d:
         2b:e2:8b:bc
-----BEGIN CERTIFICATE-----
MIIDATCCAemgAwIBAgIJAIO3CL68pAdgMA0GCSqGSIb3DQEBCwUAMB4xHDAaBgNV
BAMME1FVSUMgU2VydmVyIFJvb3QgQ0EwHhcNMTUxMDE3MDczNzM5WhcNMTYwODEy
MDczNzM5WjAeMRwwGgYDVQQDDBNRVUlDIFNlcnZlciBSb290IENBMIIBIjANBgkq
hkiG9w0BAQEFAAOCAQ8AMIIBCgKCAQEA1mzIc28QKdBt4ira6JGTo3hh1S6ao7si
4oPO2aiXlSBpVh9C1kLoOYHB7/Ocwisfs86O1w+muEUcmSi0fgfjzM5WgYlP0Obe
BcrypeQtHle8kv6/bZlW9x4+iATKgGxtqzPjmhLVHRJuTOZSTKjmMPfkzS+4Y1Sn
M18QrhIBElXLijacRswM5IqzyR0WmQn1Z+KOjhQoZ2stYB2jpN5BOFyG/w/kS6PL
BnsTHZshpIt12hoa7+2igaqFXkfO5lHZjCtm01ZqPA3R9dtCKLJ0cY0gQvLkRQGA
8K74TCiEdl48gZerWH8+KX1srUAPWtrfIYPgRDVlbXTB1gLG1l047wIDAQABo0Iw
QDAPBgNVHRMBAf8EBTADAQH/MB0GA1UdDgQWBBSRDluVvze7OWK7cklrLW8vV1bU
9DAOBgNVHQ8BAf8EBAMCAQYwDQYJKoZIhvcNAQELBQADggEBAFvALDZUEVcHaUOl
p3Uw/AQKh1R2NOVFyqy1ntYHnrj5MVUS4n/xdCn65mvfGcGi7ViR6tcdEqr7a2a0
q/GR7AcAbImXjbhpJ0sNV1I1q0DAqAzsbbJmyWehH+TfSeVlYl+1ZXdvUZBGqXgM
adhWBFjHPCdicsDcuajvln7MdUfkZzXXxT/Tt4V4ayeH/JqbUeUImEhHs7pJb7ng
P3kvtDDcIzHwQjUVUyN1Bf9oQivy4i57kxuycHeVtZat1DIu/ZQy87nayACH5IVa
g04jQlP11j7cCynCdBnP0U8G1g+2vS6iLvZTK7vuoL5VyZN/mYjk/PXFwtWIewZD
TSvii7w=
-----END CERTIFICATE-----
